target datalayout = "e-m:e-p270:32:32-p271:32:32-p272:64:64-i64:64-i128:128-f80:128-n8:16:32:64-S128"
target triple = "x86_64-unknown-linux-gnu"

%"class.std::__cxx11::basic_string" = type { %"struct.std::__cxx11::basic_string<char>::_Alloc_hider", i64, %union.anon }
%"struct.std::__cxx11::basic_string<char>::_Alloc_hider" = type { ptr }
%union.anon = type { i64, [8 x i8] }
%"class.std::__cxx11::basic_stringstream" = type { %"class.std::basic_iostream.base", %"class.std::__cxx11::basic_stringbuf", %"class.std::basic_ios" }
%"class.std::basic_iostream.base" = type { %"class.std::basic_istream.base", %"class.std::basic_ostream.base" }
%"class.std::basic_istream.base" = type { ptr, i64 }
%"class.std::basic_ostream.base" = type { ptr }
%"class.std::__cxx11::basic_stringbuf" = type { %"class.std::basic_streambuf", i32, %"class.std::__cxx11::basic_string" }
%"class.std::basic_streambuf" = type { ptr, ptr, ptr, ptr, ptr, ptr, ptr, %"class.std::locale" }
%"class.std::locale" = type { ptr }
%"class.std::basic_ios" = type { %"class.std::ios_base", ptr, i8, i8, ptr, ptr, ptr, ptr }
%"class.std::ios_base" = type { ptr, i64, i64, i32, i32, i32, ptr, %"struct.std::ios_base::_Words", [8 x %"struct.std::ios_base::_Words"], i32, ptr, %"class.std::locale" }
%"struct.std::ios_base::_Words" = type { ptr, i64 }

@_ZN8facebook5veloxL16kSecondsInMinuteE = internal global i32 60, align 4
@_ZN8facebook5veloxL18kTimeUnitsInSecondE = internal constant [4 x i64] [i64 1000000000, i64 1000000, i64 1000, i64 1], align 16
@_ZN8facebook5veloxL10kTimeScaleE = internal global i32 1000, align 4
@_ZN8facebook5veloxL13kSecondsInDayE = internal global i32 0, align 4
@.str = private unnamed_addr constant [2 x i8] c"d\00", align 1
@_ZN8facebook5veloxL14kSecondsInHourE = internal global i32 0, align 4
@.str.1 = private unnamed_addr constant [2 x i8] c" \00", align 1
@.str.2 = private unnamed_addr constant [2 x i8] c"h\00", align 1
@.str.3 = private unnamed_addr constant [2 x i8] c"m\00", align 1
@.str.4 = private unnamed_addr constant [2 x i8] c"s\00", align 1

; Function Attrs: mustprogress uwtable
define internal void @_ZN8facebook5velox12_GLOBAL__N_115succinctSecondsB5cxx11Em(ptr noalias sret(%"class.std::__cxx11::basic_string") align 8 %agg.result, i64 noundef %seconds) #0 personality ptr @__gxx_personality_v0 {
entry:
  %result.ptr = alloca ptr, align 8
  %seconds.addr = alloca i64, align 8
  %out = alloca %"class.std::__cxx11::basic_stringstream", align 8
  %days = alloca i32, align 4
  %isFirstUnit = alloca i8, align 1
  %exn.slot = alloca ptr, align 8
  %ehselector.slot = alloca i32, align 4
  %hours = alloca i32, align 4
  %minutes = alloca i32, align 4
  store ptr %agg.result, ptr %result.ptr, align 8
  store i64 %seconds, ptr %seconds.addr, align 8
  call void @_ZNSt7__cxx1118basic_stringstreamIcSt11char_traitsIcESaIcEEC1Ev(ptr noundef nonnull align 8 dereferenceable(128) %out)
  %0 = load i64, ptr %seconds.addr, align 8
  %1 = load i32, ptr @_ZN8facebook5veloxL13kSecondsInDayE, align 4
  %conv = sext i32 %1 to i64
  %div = udiv i64 %0, %conv
  %conv1 = trunc i64 %div to i32
  store i32 %conv1, ptr %days, align 4
  store i8 1, ptr %isFirstUnit, align 1
  %2 = load i32, ptr %days, align 4
  %tobool = icmp ne i32 %2, 0
  br i1 %tobool, label %if.then, label %if.end

if.then:                                          ; preds = %entry
  %add.ptr = getelementptr inbounds i8, ptr %out, i64 16
  %3 = load i32, ptr %days, align 4
  %call = invoke noundef nonnull align 8 dereferenceable(8) ptr @_ZNSolsEi(ptr noundef nonnull align 8 dereferenceable(8) %add.ptr, i32 noundef %3)
          to label %invoke.cont unwind label %lpad

invoke.cont:                                      ; preds = %if.then
  %call3 = invoke noundef nonnull align 8 dereferenceable(8) ptr @_ZStlsISt11char_traitsIcEERSt13basic_ostreamIcT_ES5_PKc(ptr noundef nonnull align 8 dereferenceable(8) %call, ptr noundef @.str)
          to label %invoke.cont2 unwind label %lpad

invoke.cont2:                                     ; preds = %invoke.cont
  store i8 0, ptr %isFirstUnit, align 1
  br label %if.end

lpad:                                             ; preds = %invoke.cont59, %invoke.cont57, %if.end52, %if.then48, %invoke.cont42, %if.end40, %if.then36, %invoke.cont18, %if.end16, %if.then12, %invoke.cont, %if.then
  %4 = landingpad { ptr, i32 }
          cleanup
  %5 = extractvalue { ptr, i32 } %4, 0
  store ptr %5, ptr %exn.slot, align 8
  %6 = extractvalue { ptr, i32 } %4, 1
  store i32 %6, ptr %ehselector.slot, align 4
  call void @_ZNSt7__cxx1118basic_stringstreamIcSt11char_traitsIcESaIcEED1Ev(ptr noundef nonnull align 8 dereferenceable(128) %out) #7
  br label %eh.resume

if.end:                                           ; preds = %invoke.cont2, %entry
  %7 = load i32, ptr %days, align 4
  %8 = load i32, ptr @_ZN8facebook5veloxL13kSecondsInDayE, align 4
  %mul = mul nsw i32 %7, %8
  %conv4 = sext i32 %mul to i64
  %9 = load i64, ptr %seconds.addr, align 8
  %sub = sub i64 %9, %conv4
  store i64 %sub, ptr %seconds.addr, align 8
  %10 = load i64, ptr %seconds.addr, align 8
  %11 = load i32, ptr @_ZN8facebook5veloxL14kSecondsInHourE, align 4
  %conv5 = sext i32 %11 to i64
  %div6 = udiv i64 %10, %conv5
  %conv7 = trunc i64 %div6 to i32
  store i32 %conv7, ptr %hours, align 4
  %12 = load i32, ptr %days, align 4
  %tobool8 = icmp ne i32 %12, 0
  br i1 %tobool8, label %if.then10, label %lor.lhs.false

lor.lhs.false:                                    ; preds = %if.end
  %13 = load i32, ptr %hours, align 4
  %tobool9 = icmp ne i32 %13, 0
  br i1 %tobool9, label %if.then10, label %if.end22

if.then10:                                        ; preds = %lor.lhs.false, %if.end
  %14 = load i8, ptr %isFirstUnit, align 1
  %tobool11 = trunc i8 %14 to i1
  br i1 %tobool11, label %if.end16, label %if.then12

if.then12:                                        ; preds = %if.then10
  %add.ptr13 = getelementptr inbounds i8, ptr %out, i64 16
  %call15 = invoke noundef nonnull align 8 dereferenceable(8) ptr @_ZStlsISt11char_traitsIcEERSt13basic_ostreamIcT_ES5_PKc(ptr noundef nonnull align 8 dereferenceable(8) %add.ptr13, ptr noundef @.str.1)
          to label %invoke.cont14 unwind label %lpad

invoke.cont14:                                    ; preds = %if.then12
  br label %if.end16

if.end16:                                         ; preds = %invoke.cont14, %if.then10
  %add.ptr17 = getelementptr inbounds i8, ptr %out, i64 16
  %15 = load i32, ptr %hours, align 4
  %call19 = invoke noundef nonnull align 8 dereferenceable(8) ptr @_ZNSolsEi(ptr noundef nonnull align 8 dereferenceable(8) %add.ptr17, i32 noundef %15)
          to label %invoke.cont18 unwind label %lpad

invoke.cont18:                                    ; preds = %if.end16
  %call21 = invoke noundef nonnull align 8 dereferenceable(8) ptr @_ZStlsISt11char_traitsIcEERSt13basic_ostreamIcT_ES5_PKc(ptr noundef nonnull align 8 dereferenceable(8) %call19, ptr noundef @.str.2)
          to label %invoke.cont20 unwind label %lpad

invoke.cont20:                                    ; preds = %invoke.cont18
  store i8 0, ptr %isFirstUnit, align 1
  br label %if.end22

if.end22:                                         ; preds = %invoke.cont20, %lor.lhs.false
  %16 = load i32, ptr %hours, align 4
  %17 = load i32, ptr @_ZN8facebook5veloxL14kSecondsInHourE, align 4
  %mul23 = mul nsw i32 %16, %17
  %conv24 = sext i32 %mul23 to i64
  %18 = load i64, ptr %seconds.addr, align 8
  %sub25 = sub i64 %18, %conv24
  store i64 %sub25, ptr %seconds.addr, align 8
  %19 = load i64, ptr %seconds.addr, align 8
  %20 = load i32, ptr @_ZN8facebook5veloxL16kSecondsInMinuteE, align 4
  %conv26 = sext i32 %20 to i64
  %div27 = udiv i64 %19, %conv26
  %conv28 = trunc i64 %div27 to i32
  store i32 %conv28, ptr %minutes, align 4
  %21 = load i32, ptr %days, align 4
  %tobool29 = icmp ne i32 %21, 0
  br i1 %tobool29, label %if.then34, label %lor.lhs.false30

lor.lhs.false30:                                  ; preds = %if.end22
  %22 = load i32, ptr %hours, align 4
  %tobool31 = icmp ne i32 %22, 0
  br i1 %tobool31, label %if.then34, label %lor.lhs.false32

lor.lhs.false32:                                  ; preds = %lor.lhs.false30
  %23 = load i32, ptr %minutes, align 4
  %tobool33 = icmp ne i32 %23, 0
  br i1 %tobool33, label %if.then34, label %if.end46

if.then34:                                        ; preds = %lor.lhs.false32, %lor.lhs.false30, %if.end22
  %24 = load i8, ptr %isFirstUnit, align 1
  %tobool35 = trunc i8 %24 to i1
  br i1 %tobool35, label %if.end40, label %if.then36

if.then36:                                        ; preds = %if.then34
  %add.ptr37 = getelementptr inbounds i8, ptr %out, i64 16
  %call39 = invoke noundef nonnull align 8 dereferenceable(8) ptr @_ZStlsISt11char_traitsIcEERSt13basic_ostreamIcT_ES5_PKc(ptr noundef nonnull align 8 dereferenceable(8) %add.ptr37, ptr noundef @.str.1)
          to label %invoke.cont38 unwind label %lpad

invoke.cont38:                                    ; preds = %if.then36
  br label %if.end40

if.end40:                                         ; preds = %invoke.cont38, %if.then34
  %add.ptr41 = getelementptr inbounds i8, ptr %out, i64 16
  %25 = load i32, ptr %minutes, align 4
  %call43 = invoke noundef nonnull align 8 dereferenceable(8) ptr @_ZNSolsEi(ptr noundef nonnull align 8 dereferenceable(8) %add.ptr41, i32 noundef %25)
          to label %invoke.cont42 unwind label %lpad

invoke.cont42:                                    ; preds = %if.end40
  %call45 = invoke noundef nonnull align 8 dereferenceable(8) ptr @_ZStlsISt11char_traitsIcEERSt13basic_ostreamIcT_ES5_PKc(ptr noundef nonnull align 8 dereferenceable(8) %call43, ptr noundef @.str.3)
          to label %invoke.cont44 unwind label %lpad

invoke.cont44:                                    ; preds = %invoke.cont42
  store i8 0, ptr %isFirstUnit, align 1
  br label %if.end46

if.end46:                                         ; preds = %invoke.cont44, %lor.lhs.false32
  %26 = load i8, ptr %isFirstUnit, align 1
  %tobool47 = trunc i8 %26 to i1
  br i1 %tobool47, label %if.end52, label %if.then48

if.then48:                                        ; preds = %if.end46
  %add.ptr49 = getelementptr inbounds i8, ptr %out, i64 16
  %call51 = invoke noundef nonnull align 8 dereferenceable(8) ptr @_ZStlsISt11char_traitsIcEERSt13basic_ostreamIcT_ES5_PKc(ptr noundef nonnull align 8 dereferenceable(8) %add.ptr49, ptr noundef @.str.1)
          to label %invoke.cont50 unwind label %lpad

invoke.cont50:                                    ; preds = %if.then48
  br label %if.end52

if.end52:                                         ; preds = %invoke.cont50, %if.end46
  %27 = load i32, ptr %minutes, align 4
  %28 = load i32, ptr @_ZN8facebook5veloxL16kSecondsInMinuteE, align 4
  %mul53 = mul nsw i32 %27, %28
  %conv54 = sext i32 %mul53 to i64
  %29 = load i64, ptr %seconds.addr, align 8
  %sub55 = sub i64 %29, %conv54
  store i64 %sub55, ptr %seconds.addr, align 8
  %add.ptr56 = getelementptr inbounds i8, ptr %out, i64 16
  %30 = load i64, ptr %seconds.addr, align 8
  %call58 = invoke noundef nonnull align 8 dereferenceable(8) ptr @_ZNSolsEm(ptr noundef nonnull align 8 dereferenceable(8) %add.ptr56, i64 noundef %30)
          to label %invoke.cont57 unwind label %lpad

invoke.cont57:                                    ; preds = %if.end52
  %call60 = invoke noundef nonnull align 8 dereferenceable(8) ptr @_ZStlsISt11char_traitsIcEERSt13basic_ostreamIcT_ES5_PKc(ptr noundef nonnull align 8 dereferenceable(8) %call58, ptr noundef @.str.4)
          to label %invoke.cont59 unwind label %lpad

invoke.cont59:                                    ; preds = %invoke.cont57
  invoke void @_ZNKSt7__cxx1118basic_stringstreamIcSt11char_traitsIcESaIcEE3strEv(ptr sret(%"class.std::__cxx11::basic_string") align 8 %agg.result, ptr noundef nonnull align 8 dereferenceable(128) %out)
          to label %invoke.cont61 unwind label %lpad

invoke.cont61:                                    ; preds = %invoke.cont59
  call void @_ZNSt7__cxx1118basic_stringstreamIcSt11char_traitsIcESaIcEED1Ev(ptr noundef nonnull align 8 dereferenceable(128) %out) #7
  ret void

eh.resume:                                        ; preds = %lpad
  %exn = load ptr, ptr %exn.slot, align 8
  %sel = load i32, ptr %ehselector.slot, align 4
  %lpad.val = insertvalue { ptr, i32 } poison, ptr %exn, 0
  %lpad.val62 = insertvalue { ptr, i32 } %lpad.val, i32 %sel, 1
  resume { ptr, i32 } %lpad.val62
}

; Function Attrs: mustprogress uwtable
define internal void @_ZN8facebook5velox12_GLOBAL__N_116succinctDurationB5cxx11Emii(ptr noalias sret(%"class.std::__cxx11::basic_string") align 8 %agg.result, i64 noundef %duration, i32 noundef %unitOffset, i32 noundef %precision) #0 {
entry:
  %result.ptr = alloca ptr, align 8
  %duration.addr = alloca i64, align 8
  %unitOffset.addr = alloca i32, align 4
  %precision.addr = alloca i32, align 4
  %seconds = alloca i64, align 8
  store ptr %agg.result, ptr %result.ptr, align 8
  store i64 %duration, ptr %duration.addr, align 8
  store i32 %unitOffset, ptr %unitOffset.addr, align 4
  store i32 %precision, ptr %precision.addr, align 4
  %0 = load i64, ptr %duration.addr, align 8
  %1 = load i32, ptr @_ZN8facebook5veloxL16kSecondsInMinuteE, align 4
  %conv = sext i32 %1 to i64
  %2 = load i32, ptr %unitOffset.addr, align 4
  %idxprom = sext i32 %2 to i64
  %arrayidx = getelementptr inbounds [4 x i64], ptr @_ZN8facebook5veloxL18kTimeUnitsInSecondE, i64 0, i64 %idxprom
  %3 = load i64, ptr %arrayidx, align 8
  %mul = mul i64 %conv, %3
  %cmp = icmp ugt i64 %0, %mul
  br i1 %cmp, label %if.then, label %if.end

if.then:                                          ; preds = %entry
  %4 = load i64, ptr %duration.addr, align 8
  %conv1 = uitofp i64 %4 to double
  %mul2 = fmul double %conv1, 1.000000e+00
  %5 = load i32, ptr %unitOffset.addr, align 4
  %idxprom3 = sext i32 %5 to i64
  %arrayidx4 = getelementptr inbounds [4 x i64], ptr @_ZN8facebook5veloxL18kTimeUnitsInSecondE, i64 0, i64 %idxprom3
  %6 = load i64, ptr %arrayidx4, align 8
  %conv5 = uitofp i64 %6 to double
  %div = fdiv double %mul2, %conv5
  %7 = call double @llvm.round.f64(double %div)
  %conv6 = fptoui double %7 to i64
  store i64 %conv6, ptr %seconds, align 8
  %8 = load i64, ptr %seconds, align 8
  call void @_ZN8facebook5velox12_GLOBAL__N_115succinctSecondsB5cxx11Em(ptr sret(%"class.std::__cxx11::basic_string") align 8 %agg.result, i64 noundef %8)
  br label %return

if.end:                                           ; preds = %entry
  %9 = load i64, ptr %duration.addr, align 8
  %10 = load i32, ptr %unitOffset.addr, align 4
  %11 = load i32, ptr @_ZN8facebook5veloxL10kTimeScaleE, align 4
  %12 = load i32, ptr %precision.addr, align 4
  call void @_ZN8facebook5velox12_GLOBAL__N_113succinctPrintB5cxx11EmPKSt17basic_string_viewIcSt11char_traitsIcEEiiii(ptr sret(%"class.std::__cxx11::basic_string") align 8 %agg.result, i64 noundef %9, ptr noundef @_ZN8facebook5veloxL10kTimeUnitsE, i32 noundef 4, i32 noundef %10, i32 noundef %11, i32 noundef %12)
  br label %return

return:                                           ; preds = %if.end, %if.then
  ret void
}