; Function Attrs: mustprogress uwtable
define internal fastcc void @_ZN8facebook5velox12_GLOBAL__N_116succinctDurationB5cxx11Emii(ptr noalias align 8 %agg.result, i64 noundef %duration, i32 noundef range(i32 0, 3) %unitOffset, i32 noundef %precision) unnamed_addr #0 personality ptr @__gxx_personality_v0 {
entry:
  %out.i = alloca %"class.std::__cxx11::basic_stringstream", align 8
  %idxprom = zext nneg i32 %unitOffset to i64
  %arrayidx = getelementptr inbounds nuw [4 x i64], ptr @_ZN8facebook5veloxL18kTimeUnitsInSecondE, i64 0, i64 %idxprom
  %0 = load i64, ptr %arrayidx, align 8
  %mul = mul i64 %0, 60
  %cmp = icmp ugt i64 %duration, %mul
  br i1 %cmp, label %if.then, label %if.end

if.then:                                          ; preds = %entry
  %conv1 = uitofp i64 %duration to double
  %conv5 = uitofp i64 %0 to double
  %div = fdiv double %conv1, %conv5
  %1 = tail call double @llvm.round.f64(double %div)
  %conv6 = fptoui double %1 to i64
  call void @llvm.lifetime.start.p0(i64 392, ptr nonnull %out.i)
  call void @_ZNSt7__cxx1118basic_stringstreamIcSt11char_traitsIcESaIcEEC1Ev(ptr noundef nonnull align 8 dereferenceable(128) %out.i), !noalias !4
  %div.i = udiv i64 %conv6, 86400
  %conv1.i = trunc i64 %div.i to i32
  %tobool.not.i = icmp eq i32 %conv1.i, 0
  br i1 %tobool.not.i, label %if.end.i, label %if.then.i

if.then.i:                                        ; preds = %if.then
  %add.ptr.i = getelementptr inbounds nuw i8, ptr %out.i, i64 16
  %call.i = invoke noundef nonnull align 8 dereferenceable(8) ptr @_ZNSolsEi(ptr noundef nonnull align 8 dereferenceable(8) %add.ptr.i, i32 noundef %conv1.i)
          to label %invoke.cont.i unwind label %lpad.i, !noalias !4

invoke.cont.i:                                    ; preds = %if.then.i
  %call3.i = invoke noundef nonnull align 8 dereferenceable(8) ptr @_ZStlsISt11char_traitsIcEERSt13basic_ostreamIcT_ES5_PKc(ptr noundef nonnull align 8 dereferenceable(8) %call.i, ptr noundef nonnull @.str)
          to label %if.then12.i unwind label %lpad.i, !noalias !4

lpad.i:                                           ; preds = %invoke.cont59.i, %invoke.cont57.i, %if.end52.i, %if.then48.i, %invoke.cont42.i, %if.end40.i, %if.then36.i, %invoke.cont18.i, %if.end16.i, %if.then12.i, %invoke.cont.i, %if.then.i
  %2 = landingpad { ptr, i32 }
          cleanup
  call void @_ZNSt7__cxx1118basic_stringstreamIcSt11char_traitsIcESaIcEED1Ev(ptr noundef nonnull align 8 dereferenceable(128) %out.i) #5
  resume { ptr, i32 } %2

if.end.i:                                         ; preds = %if.then
  %div6.i = udiv i64 %conv6, 3600
  %conv7.i = trunc i64 %div6.i to i32
  %tobool9.not.i = icmp eq i32 %conv7.i, 0
  br i1 %tobool9.not.i, label %if.end22.i, label %if.end16.i

if.then12.i:                                      ; preds = %invoke.cont.i
  %sext23.i = mul i64 %div.i, 371085174374400
  %conv424.i = ashr exact i64 %sext23.i, 32
  %sub26.i = sub i64 %conv6, %conv424.i
  %div627.i = udiv i64 %sub26.i, 3600
  %conv728.i = trunc i64 %div627.i to i32
  %call15.i = invoke noundef nonnull align 8 dereferenceable(8) ptr @_ZStlsISt11char_traitsIcEERSt13basic_ostreamIcT_ES5_PKc(ptr noundef nonnull align 8 dereferenceable(8) %add.ptr.i, ptr noundef nonnull @.str.1)
          to label %if.end16.i unwind label %lpad.i, !noalias !4

if.end16.i:                                       ; preds = %if.then12.i, %if.end.i
  %sub3348.i = phi i64 [ %sub26.i, %if.then12.i ], [ %conv6, %if.end.i ]
  %div63547.i = phi i64 [ %div627.i, %if.then12.i ], [ %div6.i, %if.end.i ]
  %conv73646.i = phi i32 [ %conv728.i, %if.then12.i ], [ %conv7.i, %if.end.i ]
  %add.ptr17.i = getelementptr inbounds nuw i8, ptr %out.i, i64 16
  %call19.i = invoke noundef nonnull align 8 dereferenceable(8) ptr @_ZNSolsEi(ptr noundef nonnull align 8 dereferenceable(8) %add.ptr17.i, i32 noundef %conv73646.i)
          to label %invoke.cont18.i unwind label %lpad.i, !noalias !4

invoke.cont18.i:                                  ; preds = %if.end16.i
  %call21.i = invoke noundef nonnull align 8 dereferenceable(8) ptr @_ZStlsISt11char_traitsIcEERSt13basic_ostreamIcT_ES5_PKc(ptr noundef nonnull align 8 dereferenceable(8) %call19.i, ptr noundef nonnull @.str.2)
          to label %if.then36.i unwind label %lpad.i, !noalias !4

if.end22.i:                                       ; preds = %if.end.i
  %div27.i = udiv i64 %conv6, 60
  %conv28.i = trunc i64 %div27.i to i32
  %tobool33.not.i = icmp eq i32 %conv28.i, 0
  br i1 %tobool33.not.i, label %if.end52.i, label %if.end40.i

if.then36.i:                                      ; preds = %invoke.cont18.i
  %sext2055.i = mul i64 %div63547.i, 15461882265600
  %conv2456.i = ashr exact i64 %sext2055.i, 32
  %sub2557.i = sub i64 %sub3348.i, %conv2456.i
  %div2758.i = udiv i64 %sub2557.i, 60
  %conv2859.i = trunc i64 %div2758.i to i32
  %call39.i = invoke noundef nonnull align 8 dereferenceable(8) ptr @_ZStlsISt11char_traitsIcEERSt13basic_ostreamIcT_ES5_PKc(ptr noundef nonnull align 8 dereferenceable(8) %add.ptr17.i, ptr noundef nonnull @.str.1)
          to label %if.end40.i unwind label %lpad.i, !noalias !4

if.end40.i:                                       ; preds = %if.then36.i, %if.end22.i
  %sub256576.i = phi i64 [ %sub2557.i, %if.then36.i ], [ %conv6, %if.end22.i ]
  %div276875.i = phi i64 [ %div2758.i, %if.then36.i ], [ %div27.i, %if.end22.i ]
  %conv286974.i = phi i32 [ %conv2859.i, %if.then36.i ], [ %conv28.i, %if.end22.i ]
  %add.ptr41.i = getelementptr inbounds nuw i8, ptr %out.i, i64 16
  %call43.i = invoke noundef nonnull align 8 dereferenceable(8) ptr @_ZNSolsEi(ptr noundef nonnull align 8 dereferenceable(8) %add.ptr41.i, i32 noundef %conv286974.i)
          to label %invoke.cont42.i unwind label %lpad.i, !noalias !4

invoke.cont42.i:                                  ; preds = %if.end40.i
  %call45.i = invoke noundef nonnull align 8 dereferenceable(8) ptr @_ZStlsISt11char_traitsIcEERSt13basic_ostreamIcT_ES5_PKc(ptr noundef nonnull align 8 dereferenceable(8) %call43.i, ptr noundef nonnull @.str.3)
          to label %if.then48.i unwind label %lpad.i, !noalias !4

if.then48.i:                                      ; preds = %invoke.cont42.i
  %call51.i = invoke noundef nonnull align 8 dereferenceable(8) ptr @_ZStlsISt11char_traitsIcEERSt13basic_ostreamIcT_ES5_PKc(ptr noundef nonnull align 8 dereferenceable(8) %add.ptr41.i, ptr noundef nonnull @.str.1)
          to label %if.end52.i unwind label %lpad.i, !noalias !4

if.end52.i:                                       ; preds = %if.then48.i, %if.end22.i
  %div2767.i = phi i64 [ %div276875.i, %if.then48.i ], [ %div27.i, %if.end22.i ]
  %sub2564.i = phi i64 [ %sub256576.i, %if.then48.i ], [ %conv6, %if.end22.i ]
  %sext21.i = mul i64 %div2767.i, 257698037760
  %conv54.i = ashr exact i64 %sext21.i, 32
  %sub55.i = sub i64 %sub2564.i, %conv54.i
  %add.ptr56.i = getelementptr inbounds nuw i8, ptr %out.i, i64 16
  %call58.i = invoke noundef nonnull align 8 dereferenceable(8) ptr @_ZNSolsEm(ptr noundef nonnull align 8 dereferenceable(8) %add.ptr56.i, i64 noundef %sub55.i)
          to label %invoke.cont57.i unwind label %lpad.i, !noalias !4

invoke.cont57.i:                                  ; preds = %if.end52.i
  %call60.i = invoke noundef nonnull align 8 dereferenceable(8) ptr @_ZStlsISt11char_traitsIcEERSt13basic_ostreamIcT_ES5_PKc(ptr noundef nonnull align 8 dereferenceable(8) %call58.i, ptr noundef nonnull @.str.4)
          to label %invoke.cont59.i unwind label %lpad.i, !noalias !4

invoke.cont59.i:                                  ; preds = %invoke.cont57.i
  invoke void @_ZNKSt7__cxx1118basic_stringstreamIcSt11char_traitsIcESaIcEE3strEv(ptr sret(%"class.std::__cxx11::basic_string") align 8 %agg.result, ptr noundef nonnull align 8 dereferenceable(128) %out.i)
          to label %_ZN8facebook5velox12_GLOBAL__N_115succinctSecondsB5cxx11Em.exit unwind label %lpad.i

_ZN8facebook5velox12_GLOBAL__N_115succinctSecondsB5cxx11Em.exit: ; preds = %invoke.cont59.i
  call void @_ZNSt7__cxx1118basic_stringstreamIcSt11char_traitsIcESaIcEED1Ev(ptr noundef nonnull align 8 dereferenceable(128) %out.i) #5
  call void @llvm.lifetime.end.p0(i64 392, ptr nonnull %out.i)
  br label %return

if.end:                                           ; preds = %entry
  tail call fastcc void @_ZN8facebook5velox12_GLOBAL__N_113succinctPrintB5cxx11EmPKSt17basic_string_viewIcSt11char_traitsIcEEiiii(ptr noalias align 8 %agg.result, i64 noundef %duration, ptr noundef nonnull @_ZN8facebook5veloxL10kTimeUnitsE, i32 noundef 4, i32 noundef %unitOffset, i32 noundef 1000, i32 noundef %precision)
  br label %return

return:                                           ; preds = %if.end, %_ZN8facebook5velox12_GLOBAL__N_115succinctSecondsB5cxx11Em.exit
  ret void
}